target datalayout = "e-m:e-p270:32:32-p271:32:32-p272:64:64-i64:64-i128:128-f80:128-n8:16:32:64-S128"
target triple = "x86_64-pc-linux-gnu"

%struct.KDF_HMAC_DRBG = type { %struct.drbg_hmac_st, ptr, ptr, ptr, i64, i64, i32 }
%struct.drbg_hmac_st = type { ptr, %struct.PROV_DIGEST, i64, [64 x i8], [64 x i8] }
%struct.PROV_DIGEST = type { ptr, ptr, ptr }

@.str.3 = private unnamed_addr constant [7 x i8] c"digest\00", align 1
@.str.6 = private unnamed_addr constant [4 x i8] c"mac\00", align 1

; Function Attrs: nounwind uwtable
define internal i32 @hmac_drbg_kdf_get_ctx_params(ptr noundef %0, ptr noundef %1) #0 {
  %3 = alloca i32, align 4
  %4 = alloca ptr, align 8
  %5 = alloca ptr, align 8
  %6 = alloca ptr, align 8
  %7 = alloca ptr, align 8
  %8 = alloca ptr, align 8
  %9 = alloca ptr, align 8
  %10 = alloca ptr, align 8
  %11 = alloca i32, align 4
  store ptr %0, ptr %4, align 8, !tbaa !3
  store ptr %1, ptr %5, align 8, !tbaa !27
  call void @llvm.lifetime.start.p0(i64 8, ptr %6) #5
  %12 = load ptr, ptr %4, align 8, !tbaa !3
  store ptr %12, ptr %6, align 8, !tbaa !3
  call void @llvm.lifetime.start.p0(i64 8, ptr %7) #5
  %13 = load ptr, ptr %6, align 8, !tbaa !3
  %14 = getelementptr inbounds nuw %struct.KDF_HMAC_DRBG, ptr %13, i32 0, i32 0
  store ptr %14, ptr %7, align 8, !tbaa !22
  call void @llvm.lifetime.start.p0(i64 8, ptr %8) #5
  call void @llvm.lifetime.start.p0(i64 8, ptr %9) #5
  call void @llvm.lifetime.start.p0(i64 8, ptr %10) #5
  %15 = load ptr, ptr %5, align 8, !tbaa !27
  %16 = call ptr @OSSL_PARAM_locate(ptr noundef %15, ptr noundef @.str.6)
  store ptr %16, ptr %10, align 8, !tbaa !27
  %17 = load ptr, ptr %10, align 8, !tbaa !27
  %18 = icmp ne ptr %17, null
  br i1 %18, label %19, label %37

19:                                               ; preds = %2
  %20 = load ptr, ptr %7, align 8, !tbaa !22
  %21 = getelementptr inbounds nuw %struct.drbg_hmac_st, ptr %20, i32 0, i32 0
  %22 = load ptr, ptr %21, align 8, !tbaa !24
  %23 = icmp eq ptr %22, null
  br i1 %23, label %24, label %25

24:                                               ; preds = %19
  store i32 0, ptr %3, align 4
  store i32 1, ptr %11, align 4
  br label %57

25:                                               ; preds = %19
  %26 = load ptr, ptr %7, align 8, !tbaa !22
  %27 = getelementptr inbounds nuw %struct.drbg_hmac_st, ptr %26, i32 0, i32 0
  %28 = load ptr, ptr %27, align 8, !tbaa !24
  %29 = call ptr @EVP_MAC_CTX_get0_mac(ptr noundef %28)
  %30 = call ptr @EVP_MAC_get0_name(ptr noundef %29)
  store ptr %30, ptr %8, align 8, !tbaa !25
  %31 = load ptr, ptr %10, align 8, !tbaa !27
  %32 = load ptr, ptr %8, align 8, !tbaa !25
  %33 = call i32 @OSSL_PARAM_set_utf8_string(ptr noundef %31, ptr noundef %32)
  %34 = icmp ne i32 %33, 0
  br i1 %34, label %36, label %35

35:                                               ; preds = %25
  store i32 0, ptr %3, align 4
  store i32 1, ptr %11, align 4
  br label %57

36:                                               ; preds = %25
  br label %37

37:                                               ; preds = %36, %2
  %38 = load ptr, ptr %5, align 8, !tbaa !27
  %39 = call ptr @OSSL_PARAM_locate(ptr noundef %38, ptr noundef @.str.3)
  store ptr %39, ptr %10, align 8, !tbaa !27
  %40 = load ptr, ptr %10, align 8, !tbaa !27
  %41 = icmp ne ptr %40, null
  br i1 %41, label %42, label %56

42:                                               ; preds = %37
  %43 = load ptr, ptr %7, align 8, !tbaa !22
  %44 = getelementptr inbounds nuw %struct.drbg_hmac_st, ptr %43, i32 0, i32 1
  %45 = call ptr @ossl_prov_digest_md(ptr noundef %44)
  store ptr %45, ptr %9, align 8, !tbaa !31
  %46 = load ptr, ptr %9, align 8, !tbaa !31
  %47 = icmp eq ptr %46, null
  br i1 %47, label %54, label %48

48:                                               ; preds = %42
  %49 = load ptr, ptr %10, align 8, !tbaa !27
  %50 = load ptr, ptr %9, align 8, !tbaa !31
  %51 = call ptr @EVP_MD_get0_name(ptr noundef %50)
  %52 = call i32 @OSSL_PARAM_set_utf8_string(ptr noundef %49, ptr noundef %51)
  %53 = icmp ne i32 %52, 0
  br i1 %53, label %55, label %54

54:                                               ; preds = %48, %42
  store i32 0, ptr %3, align 4
  store i32 1, ptr %11, align 4
  br label %57

55:                                               ; preds = %48
  br label %56

56:                                               ; preds = %55, %37
  store i32 1, ptr %3, align 4
  store i32 1, ptr %11, align 4
  br label %57

57:                                               ; preds = %56, %54, %35, %24
  call void @llvm.lifetime.end.p0(i64 8, ptr %10) #5
  call void @llvm.lifetime.end.p0(i64 8, ptr %9) #5
  call void @llvm.lifetime.end.p0(i64 8, ptr %8) #5
  call void @llvm.lifetime.end.p0(i64 8, ptr %7) #5
  call void @llvm.lifetime.end.p0(i64 8, ptr %6) #5
  %58 = load i32, ptr %3, align 4
  ret i32 %58
}