; Function Attrs: nounwind uwtable
define internal range(i32 0, 2) i32 @hmac_drbg_kdf_get_ctx_params(ptr noundef %0, ptr noundef %1) #0 {
  %3 = tail call ptr @OSSL_PARAM_locate(ptr noundef %1, ptr noundef nonnull @.str.6) #5
  %.not = icmp eq ptr %3, null
  br i1 %.not, label %11, label %4

4:                                                ; preds = %2
  %5 = load ptr, ptr %0, align 8, !tbaa !16
  %6 = icmp eq ptr %5, null
  br i1 %6, label %21, label %7

7:                                                ; preds = %4
  %8 = tail call ptr @EVP_MAC_CTX_get0_mac(ptr noundef nonnull %5) #5
  %9 = tail call ptr @EVP_MAC_get0_name(ptr noundef %8) #5
  %10 = tail call i32 @OSSL_PARAM_set_utf8_string(ptr noundef nonnull %3, ptr noundef %9) #5
  %.not18 = icmp eq i32 %10, 0
  br i1 %.not18, label %21, label %11

11:                                               ; preds = %7, %2
  %12 = tail call ptr @OSSL_PARAM_locate(ptr noundef %1, ptr noundef nonnull @.str.3) #5
  %.not19 = icmp eq ptr %12, null
  br i1 %.not19, label %20, label %13

13:                                               ; preds = %11
  %14 = getelementptr inbounds nuw i8, ptr %0, i64 8
  %15 = tail call ptr @ossl_prov_digest_md(ptr noundef nonnull %14) #5
  %16 = icmp eq ptr %15, null
  br i1 %16, label %21, label %17

17:                                               ; preds = %13
  %18 = tail call ptr @EVP_MD_get0_name(ptr noundef nonnull %15) #5
  %19 = tail call i32 @OSSL_PARAM_set_utf8_string(ptr noundef nonnull %12, ptr noundef %18) #5
  %.not20 = icmp eq i32 %19, 0
  br i1 %.not20, label %21, label %20

20:                                               ; preds = %17, %11
  br label %21

21:                                               ; preds = %13, %17, %7, %4, %20
  %.0 = phi i32 [ 1, %20 ], [ 0, %4 ], [ 0, %7 ], [ 0, %17 ], [ 0, %13 ]
  ret i32 %.0
}